target datalayout = "e-m:e-p270:32:32-p271:32:32-p272:64:64-i64:64-i128:128-f80:128-n8:16:32:64-S128"
target triple = "x86_64-pc-linux-gnu"

%class.LogTagSet = type { ptr, i64, [5 x i32], [4 x i8], %class.LogOutputList, %class.LogDecorators, ptr }
%class.LogOutputList = type <{ [6 x ptr], i32, [4 x i8] }>
%class.LogDecorators = type { i32 }
%"class.G1CMMarkStack::ChunkAllocator" = type { i64, i64, i64, i64, i8, ptr, [128 x i8], i64, [120 x i8] }

@.str.11 = private unnamed_addr constant [87 x i8] c"Can not expand overflow mark stack further, already at maximum capacity of %lu chunks.\00", align 1
@.str.12 = private unnamed_addr constant [56 x i8] c"Expanded the mark stack capacity from %lu to %lu chunks\00", align 1
@_ZN16LogTagSetMappingILN6LogTag4typeE49ELS1_0ELS1_0ELS1_0ELS1_0ELS1_0EE7_tagsetE = linkonce_odr hidden global %class.LogTagSet zeroinitializer, comdat, align 8

; Function Attrs: mustprogress nounwind uwtable
define linkonce_odr hidden noundef zeroext i1 @_ZNK13LogOutputList8is_levelEN8LogLevel4typeE(ptr noundef nonnull align 8 dereferenceable(52) %0, i32 noundef %1) #1 comdat align 2 {
  %3 = alloca ptr, align 8
  %4 = alloca i32, align 4
  store ptr %0, ptr %3, align 8
  store i32 %1, ptr %4, align 4
  %5 = load ptr, ptr %3, align 8
  %6 = getelementptr inbounds %class.LogOutputList, ptr %5, i32 0, i32 0
  %7 = load i32, ptr %4, align 4
  %8 = zext i32 %7 to i64
  %9 = getelementptr inbounds [6 x ptr], ptr %6, i64 0, i64 %8
  %10 = load volatile ptr, ptr %9, align 8
  %11 = icmp ne ptr %10, null
  ret i1 %11
}

; Function Attrs: mustprogress nounwind uwtable
define linkonce_odr hidden noundef zeroext i1 @_ZNK9LogTagSet8is_levelEN8LogLevel4typeE(ptr noundef nonnull align 8 dereferenceable(112) %0, i32 noundef %1) #1 comdat align 2 {
  %3 = alloca ptr, align 8
  %4 = alloca i32, align 4
  store ptr %0, ptr %3, align 8
  store i32 %1, ptr %4, align 4
  %5 = load ptr, ptr %3, align 8
  %6 = getelementptr inbounds %class.LogTagSet, ptr %5, i32 0, i32 4
  %7 = load i32, ptr %4, align 4
  %8 = call noundef zeroext i1 @_ZNK13LogOutputList8is_levelEN8LogLevel4typeE(ptr noundef nonnull align 8 dereferenceable(52) %6, i32 noundef %7)
  ret i1 %8
}

; Function Attrs: mustprogress nounwind uwtable
define linkonce_odr hidden noundef nonnull align 8 dereferenceable(112) ptr @_ZN16LogTagSetMappingILN6LogTag4typeE49ELS1_0ELS1_0ELS1_0ELS1_0ELS1_0EE6tagsetEv() #1 comdat align 2 {
  ret ptr @_ZN16LogTagSetMappingILN6LogTag4typeE49ELS1_0ELS1_0ELS1_0ELS1_0ELS1_0EE7_tagsetE
}

; Function Attrs: mustprogress nounwind uwtable
define linkonce_odr hidden noundef i64 @_Z4MIN2ImET_S0_S0_(i64 noundef %0, i64 noundef %1) #1 comdat {
  %3 = alloca i64, align 8
  %4 = alloca i64, align 8
  store i64 %0, ptr %3, align 8
  store i64 %1, ptr %4, align 8
  %5 = load i64, ptr %3, align 8
  %6 = load i64, ptr %4, align 8
  %7 = icmp ult i64 %5, %6
  br i1 %7, label %8, label %10

8:                                                ; preds = %2
  %9 = load i64, ptr %3, align 8
  br label %12

10:                                               ; preds = %2
  %11 = load i64, ptr %4, align 8
  br label %12

12:                                               ; preds = %10, %8
  %13 = phi i64 [ %9, %8 ], [ %11, %10 ]
  ret i64 %13
}

; Function Attrs: mustprogress nounwind uwtable
define linkonce_odr hidden noundef zeroext i1 @_ZN7LogImplILN6LogTag4typeE49ELS1_0ELS1_0ELS1_0ELS1_0ELS1_0EE8is_levelEN8LogLevel4typeE(i32 noundef %0) #1 comdat align 2 {
  %2 = alloca i32, align 4
  store i32 %0, ptr %2, align 4
  %3 = call noundef nonnull align 8 dereferenceable(112) ptr @_ZN16LogTagSetMappingILN6LogTag4typeE49ELS1_0ELS1_0ELS1_0ELS1_0ELS1_0EE6tagsetEv()
  %4 = load i32, ptr %2, align 4
  %5 = call noundef zeroext i1 @_ZNK9LogTagSet8is_levelEN8LogLevel4typeE(ptr noundef nonnull align 8 dereferenceable(112) %3, i32 noundef %4)
  ret i1 %5
}

; Function Attrs: mustprogress nounwind uwtable
define hidden noundef zeroext i1 @_ZN13G1CMMarkStack14ChunkAllocator13try_expand_toEm(ptr noundef nonnull align 8 dereferenceable(304) %0, i64 noundef %1) #1 align 2 {
  %3 = alloca i1, align 1
  %4 = alloca ptr, align 8
  %5 = alloca i64, align 8
  %6 = alloca i64, align 8
  store ptr %0, ptr %4, align 8
  store i64 %1, ptr %5, align 8
  %7 = load ptr, ptr %4, align 8
  %8 = getelementptr inbounds %"class.G1CMMarkStack::ChunkAllocator", ptr %7, i32 0, i32 2
  %9 = load i64, ptr %8, align 8
  %10 = getelementptr inbounds %"class.G1CMMarkStack::ChunkAllocator", ptr %7, i32 0, i32 1
  %11 = load i64, ptr %10, align 8
  %12 = icmp eq i64 %9, %11
  br i1 %12, label %13, label %20

13:                                               ; preds = %2
  %14 = call noundef zeroext i1 @_ZN7LogImplILN6LogTag4typeE49ELS1_0ELS1_0ELS1_0ELS1_0ELS1_0EE8is_levelEN8LogLevel4typeE(i32 noundef 2)
  br i1 %14, label %16, label %15

15:                                               ; preds = %13
  br label %19

16:                                               ; preds = %13
  %17 = getelementptr inbounds %"class.G1CMMarkStack::ChunkAllocator", ptr %7, i32 0, i32 2
  %18 = load i64, ptr %17, align 8
  call void (ptr, ...) @_ZN7LogImplILN6LogTag4typeE49ELS1_0ELS1_0ELS1_0ELS1_0ELS1_0EE5writeILN8LogLevel4typeE2EEEvPKcz(ptr noundef @.str.11, i64 noundef %18)
  br label %19

19:                                               ; preds = %16, %15
  store i1 false, ptr %3, align 1
  br label %37

20:                                               ; preds = %2
  %21 = getelementptr inbounds %"class.G1CMMarkStack::ChunkAllocator", ptr %7, i32 0, i32 2
  %22 = load i64, ptr %21, align 8
  store i64 %22, ptr %6, align 8
  %23 = load i64, ptr %5, align 8
  %24 = getelementptr inbounds %"class.G1CMMarkStack::ChunkAllocator", ptr %7, i32 0, i32 1
  %25 = load i64, ptr %24, align 8
  %26 = call noundef i64 @_Z4MIN2ImET_S0_S0_(i64 noundef %23, i64 noundef %25)
  store i64 %26, ptr %5, align 8
  %27 = load i64, ptr %5, align 8
  %28 = call noundef zeroext i1 @_ZN13G1CMMarkStack14ChunkAllocator7reserveEm(ptr noundef nonnull align 8 dereferenceable(304) %7, i64 noundef %27)
  br i1 %28, label %29, label %36

29:                                               ; preds = %20
  %30 = call noundef zeroext i1 @_ZN7LogImplILN6LogTag4typeE49ELS1_0ELS1_0ELS1_0ELS1_0ELS1_0EE8is_levelEN8LogLevel4typeE(i32 noundef 2)
  br i1 %30, label %32, label %31

31:                                               ; preds = %29
  br label %35

32:                                               ; preds = %29
  %33 = load i64, ptr %6, align 8
  %34 = load i64, ptr %5, align 8
  call void (ptr, ...) @_ZN7LogImplILN6LogTag4typeE49ELS1_0ELS1_0ELS1_0ELS1_0ELS1_0EE5writeILN8LogLevel4typeE2EEEvPKcz(ptr noundef @.str.12, i64 noundef %33, i64 noundef %34)
  br label %35

35:                                               ; preds = %32, %31
  store i1 true, ptr %3, align 1
  br label %37

36:                                               ; preds = %20
  store i1 false, ptr %3, align 1
  br label %37

37:                                               ; preds = %36, %35, %19
  %38 = load i1, ptr %3, align 1
  ret i1 %38
}

; Function Attrs: mustprogress nounwind uwtable
define hidden noundef zeroext i1 @_ZN13G1CMMarkStack14ChunkAllocator10try_expandEv(ptr noundef nonnull align 8 dereferenceable(304) %0) #1 align 2 {
  %2 = alloca ptr, align 8
  %3 = alloca i64, align 8
  store ptr %0, ptr %2, align 8
  %4 = load ptr, ptr %2, align 8
  %5 = getelementptr inbounds %"class.G1CMMarkStack::ChunkAllocator", ptr %4, i32 0, i32 2
  %6 = load i64, ptr %5, align 8
  %7 = mul i64 %6, 2
  store i64 %7, ptr %3, align 8
  %8 = load i64, ptr %3, align 8
  %9 = call noundef zeroext i1 @_ZN13G1CMMarkStack14ChunkAllocator13try_expand_toEm(ptr noundef nonnull align 8 dereferenceable(304) %4, i64 noundef %8)
  ret i1 %9
}