; Function Attrs: mustprogress nounwind uwtable
define hidden noundef zeroext i1 @_ZN13G1CMMarkStack14ChunkAllocator10try_expandEv(ptr nocapture noundef nonnull align 8 dereferenceable(304) %0) local_unnamed_addr #0 align 2 {
  %2 = getelementptr inbounds i8, ptr %0, i64 16
  %3 = load i64, ptr %2, align 8
  %4 = getelementptr inbounds i8, ptr %0, i64 8
  %5 = load i64, ptr %4, align 8
  %6 = icmp eq i64 %3, %5
  br i1 %6, label %7, label %10

7:                                                ; preds = %1
  %8 = load volatile ptr, ptr getelementptr inbounds (i8, ptr @_ZN16LogTagSetMappingILN6LogTag4typeE49ELS1_0ELS1_0ELS1_0ELS1_0ELS1_0EE7_tagsetE, i64 56), align 8
  %.not7.i = icmp eq ptr %8, null
  br i1 %.not7.i, label %_ZN13G1CMMarkStack14ChunkAllocator13try_expand_toEm.exit, label %9

9:                                                ; preds = %7
  tail call void (ptr, ...) @_ZN7LogImplILN6LogTag4typeE49ELS1_0ELS1_0ELS1_0ELS1_0ELS1_0EE5writeILN8LogLevel4typeE2EEEvPKcz(ptr noundef nonnull @.str.11, i64 noundef %3)
  br label %_ZN13G1CMMarkStack14ChunkAllocator13try_expand_toEm.exit

10:                                               ; preds = %1
  %11 = shl i64 %3, 1
  %12 = tail call noundef i64 @llvm.umin.i64(i64 %11, i64 %5)
  %13 = tail call noundef zeroext i1 @_ZN13G1CMMarkStack14ChunkAllocator7reserveEm(ptr noundef nonnull align 8 dereferenceable(304) %0, i64 noundef %12)
  br i1 %13, label %14, label %_ZN13G1CMMarkStack14ChunkAllocator13try_expand_toEm.exit

14:                                               ; preds = %10
  %15 = load volatile ptr, ptr getelementptr inbounds (i8, ptr @_ZN16LogTagSetMappingILN6LogTag4typeE49ELS1_0ELS1_0ELS1_0ELS1_0ELS1_0EE7_tagsetE, i64 56), align 8
  %.not.i = icmp eq ptr %15, null
  br i1 %.not.i, label %_ZN13G1CMMarkStack14ChunkAllocator13try_expand_toEm.exit, label %16

16:                                               ; preds = %14
  tail call void (ptr, ...) @_ZN7LogImplILN6LogTag4typeE49ELS1_0ELS1_0ELS1_0ELS1_0ELS1_0EE5writeILN8LogLevel4typeE2EEEvPKcz(ptr noundef nonnull @.str.12, i64 noundef %3, i64 noundef %12)
  br label %_ZN13G1CMMarkStack14ChunkAllocator13try_expand_toEm.exit

_ZN13G1CMMarkStack14ChunkAllocator13try_expand_toEm.exit: ; preds = %7, %9, %10, %14, %16
  %.0.i = phi i1 [ false, %7 ], [ false, %9 ], [ true, %14 ], [ true, %16 ], [ false, %10 ]
  ret i1 %.0.i
}